(dp0
S'info'
p1
(dp2
Vgems
p3
(lp4
(I15
I16
tp5
asVstatus
p6
Vrunning
p7
sVsnakes
p8
(lp9
(dp10
Vbody
p11
(lp12
(I36
I20
tp13
a(I36
I21
tp14
a(I36
I22
tp15
asVdirection
p16
I1
sVname
p17
Vsimple ai 356
p18
sValive
p19
I00
sVlength
p20
I3
sVsprint
p21
I-19
sVtype
p22
Vpython
p23
sa(dp24
Vbody
p25
(lp26
(I11
I4
tp27
a(I12
I4
tp28
a(I13
I4
tp29
a(I14
I4
tp30
a(I15
I4
tp31
a(I16
I4
tp32
a(I17
I4
tp33
a(I17
I3
tp34
a(I16
I3
tp35
asVdirection
p36
I0
sVname
p37
Vsimple ai 650
p38
sValive
p39
I01
sVlength
p40
I9
sVsprint
p41
I0
sVtype
p42
Vpython
p43
sa(dp44
Vbody
p45
(lp46
(I27
I6
tp47
a(I27
I7
tp48
a(I27
I8
tp49
asVdirection
p50
I1
sVname
p51
Vsimple ai 996
p52
sValive
p53
I00
sVlength
p54
I3
sVsprint
p55
I-19
sVtype
p56
Vpython
p57
sa(dp58
Vbody
p59
(lp60
(I9
I12
tp61
a(I10
I12
tp62
a(I11
I12
tp63
asVdirection
p64
I0
sVname
p65
Vsimple ai 984
p66
sValive
p67
I01
sVlength
p68
I3
sVsprint
p69
I0
sVtype
p70
Vpython
p71
sa(dp72
Vbody
p73
(lp74
(I16
I5
tp75
a(I33
I6
tp76
a(I32
I6
tp77
asVdirection
p78
I1
sVname
p79
Vfnake-2836
p80
sValive
p81
I01
sVlength
p82
I3
sVsprint
p83
I0
sVtype
p84
Vpython
p85
sasVeggs
p86
(lp87
(I4
I5
tp88
asVlogs
p89
(lp90
sVround
p91
I148
sVop
p92
Vinfo
p93
ssS'map'
p94
(dp95
Vportals
p96
(lp97
(I6
I5
tp98
a(I43
I5
tp99
a(I6
I19
tp100
a(I43
I19
tp101
a(I16
I5
tp102
a(I33
I5
tp103
a(I16
I19
tp104
a(I33
I19
tp105
asVname
p106
Vcampain
p107
sVauthor
p108
Vhalida
p109
sVwalls
p110
(lp111
(I5
I5
tp112
a(I7
I5
tp113
a(I8
I5
tp114
a(I9
I5
tp115
a(I10
I5
tp116
a(I11
I5
tp117
a(I12
I5
tp118
a(I13
I5
tp119
a(I14
I5
tp120
a(I15
I5
tp121
a(I17
I5
tp122
a(I18
I5
tp123
a(I19
I5
tp124
a(I20
I5
tp125
a(I21
I5
tp126
a(I22
I5
tp127
a(I23
I5
tp128
a(I24
I5
tp129
a(I25
I5
tp130
a(I26
I5
tp131
a(I27
I5
tp132
a(I28
I5
tp133
a(I29
I5
tp134
a(I30
I5
tp135
a(I31
I5
tp136
a(I32
I5
tp137
a(I34
I5
tp138
a(I35
I5
tp139
a(I36
I5
tp140
a(I37
I5
tp141
a(I38
I5
tp142
a(I39
I5
tp143
a(I40
I5
tp144
a(I41
I5
tp145
a(I42
I5
tp146
a(I44
I5
tp147
a(I5
I6
tp148
a(I44
I6
tp149
a(I5
I7
tp150
a(I44
I7
tp151
a(I5
I8
tp152
a(I44
I8
tp153
a(I5
I9
tp154
a(I44
I9
tp155
a(I5
I10
tp156
a(I44
I10
tp157
a(I5
I11
tp158
a(I44
I11
tp159
a(I5
I12
tp160
a(I44
I12
tp161
a(I5
I13
tp162
a(I44
I13
tp163
a(I5
I14
tp164
a(I44
I14
tp165
a(I5
I15
tp166
a(I44
I15
tp167
a(I5
I16
tp168
a(I44
I16
tp169
a(I5
I17
tp170
a(I44
I17
tp171
a(I5
I18
tp172
a(I44
I18
tp173
a(I5
I19
tp174
a(I7
I19
tp175
a(I8
I19
tp176
a(I9
I19
tp177
a(I10
I19
tp178
a(I11
I19
tp179
a(I12
I19
tp180
a(I13
I19
tp181
a(I14
I19
tp182
a(I15
I19
tp183
a(I17
I19
tp184
a(I18
I19
tp185
a(I19
I19
tp186
a(I20
I19
tp187
a(I21
I19
tp188
a(I22
I19
tp189
a(I23
I19
tp190
a(I24
I19
tp191
a(I25
I19
tp192
a(I26
I19
tp193
a(I27
I19
tp194
a(I28
I19
tp195
a(I29
I19
tp196
a(I30
I19
tp197
a(I31
I19
tp198
a(I32
I19
tp199
a(I34
I19
tp200
a(I35
I19
tp201
a(I36
I19
tp202
a(I37
I19
tp203
a(I38
I19
tp204
a(I39
I19
tp205
a(I40
I19
tp206
a(I41
I19
tp207
a(I42
I19
tp208
a(I44
I19
tp209
asVop
p210
Vmap
p211
sVsize
p212
(lp213
I50
aI25
assS'name'
p214
g80
s.