(dp0
S'info'
p1
(dp2
Vgems
p3
(lp4
(I45
I20
tp5
asVstatus
p6
Vrunning
p7
sVsnakes
p8
(lp9
(dp10
Vbody
p11
(lp12
(I32
I13
tp13
a(I33
I13
tp14
a(I34
I13
tp15
a(I35
I13
tp16
a(I36
I13
tp17
asVdirection
p18
I0
sVname
p19
Vsimple ai 356
p20
sValive
p21
I00
sVlength
p22
I5
sVsprint
p23
I0
sVtype
p24
Vpython
p25
sa(dp26
Vbody
p27
(lp28
(I3
I14
tp29
a(I2
I14
tp30
a(I1
I14
tp31
a(I0
I14
tp32
a(I0
I13
tp33
a(I1
I13
tp34
a(I2
I13
tp35
a(I3
I13
tp36
a(I4
I13
tp37
asVdirection
p38
I2
sVname
p39
Vsimple ai 650
p40
sValive
p41
I01
sVlength
p42
I9
sVsprint
p43
I0
sVtype
p44
Vpython
p45
sa(dp46
Vbody
p47
(lp48
(I32
I12
tp49
a(I32
I11
tp50
a(I32
I10
tp51
a(I32
I9
tp52
asVdirection
p53
I3
sVname
p54
Vsimple ai 996
p55
sValive
p56
I00
sVlength
p57
I4
sVsprint
p58
I-19
sVtype
p59
Vpython
p60
sa(dp61
Vbody
p62
(lp63
(I49
I14
tp64
a(I49
I13
tp65
a(I48
I13
tp66
a(I47
I13
tp67
a(I46
I13
tp68
a(I45
I13
tp69
asVdirection
p70
I3
sVname
p71
Vsimple ai 984
p72
sValive
p73
I01
sVlength
p74
I6
sVsprint
p75
I0
sVtype
p76
Vpython
p77
sa(dp78
Vbody
p79
(lp80
(I9
I21
tp81
a(I10
I21
tp82
a(I11
I21
tp83
a(I12
I21
tp84
a(I13
I21
tp85
a(I14
I21
tp86
a(I15
I21
tp87
a(I16
I21
tp88
a(I16
I20
tp89
a(I16
I19
tp90
a(I33
I18
tp91
a(I32
I18
tp92
a(I31
I18
tp93
a(I30
I18
tp94
a(I29
I18
tp95
a(I28
I18
tp96
asVdirection
p97
I0
sVname
p98
Vfnake-4137
p99
sValive
p100
I01
sVlength
p101
I16
sVsprint
p102
I0
sVtype
p103
Vruby
p104
sa(dp105
Vbody
p106
(lp107
(I18
I13
tp108
a(I18
I12
tp109
asVdirection
p110
I3
sVname
p111
VDavidsunSnake
p112
sValive
p113
I00
sVlength
p114
I2
sVsprint
p115
I0
sVtype
p116
Vruby
p117
sa(dp118
Vbody
p119
(lp120
(I34
I18
tp121
a(I34
I17
tp122
asVdirection
p123
I3
sVname
p124
Vfnake-5873
p125
sValive
p126
I01
sVlength
p127
I2
sVsprint
p128
I0
sVtype
p129
Vruby
p130
sasVeggs
p131
(lp132
(I18
I14
tp133
asVlogs
p134
(lp135
sVround
p136
I974
sVop
p137
Vinfo
p138
ssS'map'
p139
(dp140
Vportals
p141
(lp142
(I6
I5
tp143
a(I43
I5
tp144
a(I6
I19
tp145
a(I43
I19
tp146
a(I16
I5
tp147
a(I33
I5
tp148
a(I16
I19
tp149
a(I33
I19
tp150
asVname
p151
Vcampain
p152
sVauthor
p153
Vhalida
p154
sVwalls
p155
(lp156
(I5
I5
tp157
a(I7
I5
tp158
a(I8
I5
tp159
a(I9
I5
tp160
a(I10
I5
tp161
a(I11
I5
tp162
a(I12
I5
tp163
a(I13
I5
tp164
a(I14
I5
tp165
a(I15
I5
tp166
a(I17
I5
tp167
a(I18
I5
tp168
a(I19
I5
tp169
a(I20
I5
tp170
a(I21
I5
tp171
a(I22
I5
tp172
a(I23
I5
tp173
a(I24
I5
tp174
a(I25
I5
tp175
a(I26
I5
tp176
a(I27
I5
tp177
a(I28
I5
tp178
a(I29
I5
tp179
a(I30
I5
tp180
a(I31
I5
tp181
a(I32
I5
tp182
a(I34
I5
tp183
a(I35
I5
tp184
a(I36
I5
tp185
a(I37
I5
tp186
a(I38
I5
tp187
a(I39
I5
tp188
a(I40
I5
tp189
a(I41
I5
tp190
a(I42
I5
tp191
a(I44
I5
tp192
a(I5
I6
tp193
a(I44
I6
tp194
a(I5
I7
tp195
a(I44
I7
tp196
a(I5
I8
tp197
a(I44
I8
tp198
a(I5
I9
tp199
a(I44
I9
tp200
a(I5
I10
tp201
a(I44
I10
tp202
a(I5
I11
tp203
a(I44
I11
tp204
a(I5
I12
tp205
a(I44
I12
tp206
a(I5
I13
tp207
a(I44
I13
tp208
a(I5
I14
tp209
a(I44
I14
tp210
a(I5
I15
tp211
a(I44
I15
tp212
a(I5
I16
tp213
a(I44
I16
tp214
a(I5
I17
tp215
a(I44
I17
tp216
a(I5
I18
tp217
a(I44
I18
tp218
a(I5
I19
tp219
a(I7
I19
tp220
a(I8
I19
tp221
a(I9
I19
tp222
a(I10
I19
tp223
a(I11
I19
tp224
a(I12
I19
tp225
a(I13
I19
tp226
a(I14
I19
tp227
a(I15
I19
tp228
a(I17
I19
tp229
a(I18
I19
tp230
a(I19
I19
tp231
a(I20
I19
tp232
a(I21
I19
tp233
a(I22
I19
tp234
a(I23
I19
tp235
a(I24
I19
tp236
a(I25
I19
tp237
a(I26
I19
tp238
a(I27
I19
tp239
a(I28
I19
tp240
a(I29
I19
tp241
a(I30
I19
tp242
a(I31
I19
tp243
a(I32
I19
tp244
a(I34
I19
tp245
a(I35
I19
tp246
a(I36
I19
tp247
a(I37
I19
tp248
a(I38
I19
tp249
a(I39
I19
tp250
a(I40
I19
tp251
a(I41
I19
tp252
a(I42
I19
tp253
a(I44
I19
tp254
asVop
p255
Vmap
p256
sVsize
p257
(lp258
I50
aI25
assS'name'
p259
g125
s.